target datalayout = "e-m:e-p270:32:32-p271:32:32-p272:64:64-i64:64-i128:128-f80:128-n8:16:32:64-S128"
target triple = "x86_64-pc-linux-gnu"

; Function Attrs: nounwind uwtable
define i32 @memcmp(ptr noundef %0, ptr noundef %1, i64 noundef %2) #0 {
  %4 = alloca i32, align 4
  %5 = alloca ptr, align 8
  %6 = alloca ptr, align 8
  %7 = alloca i64, align 8
  %8 = alloca ptr, align 8
  %9 = alloca ptr, align 8
  store ptr %0, ptr %5, align 8
  store ptr %1, ptr %6, align 8
  store i64 %2, ptr %7, align 8
  %10 = load ptr, ptr %5, align 8
  store ptr %10, ptr %8, align 8
  %11 = load ptr, ptr %6, align 8
  store ptr %11, ptr %9, align 8
  br label %12

12:                                               ; preds = %35, %3
  %13 = load i64, ptr %7, align 8
  %14 = add i64 %13, -1
  store i64 %14, ptr %7, align 8
  %15 = icmp ugt i64 %13, 0
  br i1 %15, label %16, label %40

16:                                               ; preds = %12
  %17 = load ptr, ptr %8, align 8
  %18 = load i8, ptr %17, align 1
  %19 = zext i8 %18 to i32
  %20 = load ptr, ptr %9, align 8
  %21 = load i8, ptr %20, align 1
  %22 = zext i8 %21 to i32
  %23 = icmp slt i32 %19, %22
  br i1 %23, label %24, label %25

24:                                               ; preds = %16
  store i32 -1, ptr %4, align 4
  br label %41

25:                                               ; preds = %16
  %26 = load ptr, ptr %8, align 8
  %27 = load i8, ptr %26, align 1
  %28 = zext i8 %27 to i32
  %29 = load ptr, ptr %9, align 8
  %30 = load i8, ptr %29, align 1
  %31 = zext i8 %30 to i32
  %32 = icmp sgt i32 %28, %31
  br i1 %32, label %33, label %34

33:                                               ; preds = %25
  store i32 1, ptr %4, align 4
  br label %41

34:                                               ; preds = %25
  br label %35

35:                                               ; preds = %34
  %36 = load ptr, ptr %8, align 8
  %37 = getelementptr inbounds i8, ptr %36, i32 1
  store ptr %37, ptr %8, align 8
  %38 = load ptr, ptr %9, align 8
  %39 = getelementptr inbounds i8, ptr %38, i32 1
  store ptr %39, ptr %9, align 8
  br label %12, !llvm.loop !6

40:                                               ; preds = %12
  store i32 0, ptr %4, align 4
  br label %41

41:                                               ; preds = %40, %33, %24
  %42 = load i32, ptr %4, align 4
  ret i32 %42
}


!llvm.module.flags = !{!0, !1, !2, !3, !4, !5}

!0 = !{i32 7, !"Dwarf Version", i32 5}
!1 = !{i32 2, !"Debug Info Version", i32 3}
!2 = !{i32 1, !"wchar_size", i32 4}
!3 = !{i32 8, !"PIC Level", i32 2}
!4 = !{i32 7, !"uwtable", i32 2}
!5 = !{i32 7, !"frame-pointer", i32 2}
!6 = distinct !{!6, !7}
!7 = !{!"llvm.loop.mustprogress"}
